target datalayout = "e-m:e-p270:32:32-p271:32:32-p272:64:64-i64:64-i128:128-f80:128-n8:16:32:64-S128"
target triple = "x86_64-pc-linux-gnu"

%struct._zval_struct = type { %union._zend_value, %union.anon.3, %union.anon.6 }
%union._zend_value = type { i64 }
%union.anon.3 = type { i32 }
%union.anon.6 = type { i32 }
%struct._zend_ast_zval = type { i16, i16, %struct._zval_struct }
%struct._zend_ast = type { i16, i16, i32, [1 x ptr] }

@.str.16 = private unnamed_addr constant [19 x i8] c"Illegal class name\00", align 1

; Function Attrs: nounwind uwtable
define hidden ptr @zend_resolve_class_name_ast(ptr noundef %0) #0 {
  %2 = alloca ptr, align 8
  %3 = alloca ptr, align 8
  %4 = alloca ptr, align 8
  %5 = alloca ptr, align 8
  store ptr %0, ptr %4, align 8
  %6 = load ptr, ptr %4, align 8
  store ptr %6, ptr %3, align 8
  %7 = load ptr, ptr %3, align 8
  %8 = load i16, ptr %7, align 8
  %9 = zext i16 %8 to i32
  %10 = icmp eq i32 %9, 64
  call void @llvm.assume(i1 %10)
  %11 = load ptr, ptr %3, align 8
  %12 = getelementptr inbounds %struct._zend_ast_zval, ptr %11, i32 0, i32 2
  store ptr %12, ptr %5, align 8
  %13 = load ptr, ptr %5, align 8
  store ptr %13, ptr %2, align 8
  %14 = load ptr, ptr %2, align 8
  %15 = getelementptr inbounds %struct._zval_struct, ptr %14, i32 0, i32 1
  %16 = load i8, ptr %15, align 8
  %17 = zext i8 %16 to i32
  %18 = icmp ne i32 %17, 6
  br i1 %18, label %19, label %20

19:                                               ; preds = %1
  call void (i32, ptr, ...) @zend_error_noreturn(i32 noundef 64, ptr noundef @.str.16) #14
  unreachable

20:                                               ; preds = %1
  %21 = load ptr, ptr %5, align 8
  %22 = getelementptr inbounds %struct._zval_struct, ptr %21, i32 0, i32 0
  %23 = load ptr, ptr %22, align 8
  %24 = load ptr, ptr %4, align 8
  %25 = getelementptr inbounds %struct._zend_ast, ptr %24, i32 0, i32 1
  %26 = load i16, ptr %25, align 2
  %27 = zext i16 %26 to i32
  %28 = call ptr @zend_resolve_class_name(ptr noundef %23, i32 noundef %27)
  ret ptr %28
}