; Function Attrs: nounwind uwtable
define hidden ptr @zend_resolve_class_name_ast(ptr nocapture noundef readonly %0) local_unnamed_addr #0 {
  %2 = load i16, ptr %0, align 8
  %3 = icmp eq i16 %2, 64
  tail call void @llvm.assume(i1 %3)
  %4 = getelementptr inbounds i8, ptr %0, i64 16
  %5 = load i8, ptr %4, align 8
  %.not = icmp eq i8 %5, 6
  br i1 %.not, label %7, label %6

6:                                                ; preds = %1
  tail call void (i32, ptr, ...) @zend_error_noreturn(i32 noundef 64, ptr noundef nonnull @.str.16) #31
  unreachable

7:                                                ; preds = %1
  %8 = getelementptr inbounds i8, ptr %0, i64 8
  %9 = load ptr, ptr %8, align 8
  %10 = getelementptr inbounds i8, ptr %0, i64 2
  %11 = load i16, ptr %10, align 2
  %12 = zext i16 %11 to i32
  %13 = tail call fastcc ptr @zend_resolve_class_name(ptr noundef %9, i32 noundef %12)
  ret ptr %13
}